(dp0
S'username'
p1
S'Fsdfdfsd'
p2
sS'useremail'
p3
S'loriscrc@gmail.com'
p4
sS'firstname'
p5
S'Croce'
p6
sS'lastname'
p7
S'Croce'
p8
sS'birthdate'
p9
S'26/02/1986'
p10
sS'envoyer'
p11
S'Envoyer'
p12
sS'userpwd'
p13
S'2f2b6db38d57e8f17205261b101fffd7d7ef204cae3057f7d3c341c3852f61bdaa90dd0d4ab495124d08027114fc5d434439113b83182ee5368734b027406451'
p14
s.