(dp0
S'username'
p1
S'Michoux'
p2
sS'useremail'
p3
S'michel@gromich.com'
p4
sS'firstname'
p5
S'Bobby'
p6
sS'lastname'
p7
S'Michel'
p8
sS'birthdate'
p9
S'26/02/1956'
p10
sS'envoyer'
p11
S'Envoyer'
p12
sS'userpwd'
p13
S'20b68afbf2bc5c49d9ddd94483d9265ffdfe64aab57d53301f323780df63592d6bf668810389462d21154208d8f36a7d016e43733a0fc69ddb5b382ab541e383'
p14
s.