(dp0
S'username'
p1
S'loriscrc'
p2
sS'useremail'
p3
S'loriscrc@gmail.com'
p4
sS'firstname'
p5
S'Croce'
p6
sS'lastname'
p7
S'Loris'
p8
sS'birthdate'
p9
S'31/05/1995'
p10
sS'envoyer'
p11
S'Envoyer'
p12
sS'userpwd'
p13
S'4798d785922bbb4b649258880fa80deaabe49bab8ff9829a4d08ee3e35833d184df52f386575aef0a6c68d13e242bfc5ba077776ac301505bfcdf486c43bdf5b'
p14
s.