(dp0
S'username'
p1
S'BeauPitt'
p2
sS'useremail'
p3
S'loriscrc@gmail.com'
p4
sS'firstname'
p5
S'Loris'
p6
sS'lastname'
p7
S'Croce'
p8
sS'birthdate'
p9
S'31/05/1995'
p10
sS'envoyer'
p11
S'Envoyer'
p12
sS'userpwd'
p13
S'aa015ba1f1b185159770d061b00266dfaa572ea579593ec3560061304e6ef5ed22fa5083d600a9ce8afdf78df05bfa69e4cd7468bcbac24c3dda5bff7b7dab90'
p14
s.