(dp0
S'username'
p1
S'BeauPitt'
p2
sS'useremail'
p3
S'loriscrc@gmail.com'
p4
sS'firstname'
p5
S'Loris'
p6
sS'lastname'
p7
S'Croce'
p8
sS'birthdate'
p9
S'31/05/1995'
p10
sS'envoyer'
p11
S'Envoyer'
p12
sS'userpwd'
p13
S'928251b5d9670249804f9886843310d3bf0a25942ec40128b99770719b250543a6cb1b75961cd1f72b0c057f116a2a9eb0bfae208935a0e06cf6734136fa16f4'
p14
s.